target datalayout = "e-m:e-p270:32:32-p271:32:32-p272:64:64-i64:64-i128:128-f80:128-n8:16:32:64-S128"
target triple = "x86_64-pc-linux-gnu"

%struct.commit_graph = type { ptr, i64, i8, i8, i32, %struct.object_id, ptr, ptr, i32, i32, ptr, ptr, ptr, ptr, ptr, ptr, i64, ptr, i64, ptr, i64, ptr, ptr, i64, ptr, ptr }
%struct.object_id = type { [32 x i8], i32 }

@.str.31 = private unnamed_addr constant [1 x i8] zeroinitializer, align 1
@git_gettext_enabled = external global i32, align 4
@.str.34 = private unnamed_addr constant [48 x i8] c"commit-graph OID lookup chunk is the wrong size\00", align 1

; Function Attrs: inlinehint nounwind uwtable
define internal i32 @const_error() #5 {
  ret i32 -1
}

; Function Attrs: inlinehint nounwind uwtable
define internal ptr @_(ptr noundef %0) #5 {
  %2 = alloca ptr, align 8
  %3 = alloca ptr, align 8
  store ptr %0, ptr %3, align 8, !tbaa !65
  %4 = load ptr, ptr %3, align 8, !tbaa !65
  %5 = load i8, ptr %4, align 1, !tbaa !85
  %6 = icmp ne i8 %5, 0
  br i1 %6, label %8, label %7

7:                                                ; preds = %1
  store ptr @.str.31, ptr %2, align 8
  br label %16

8:                                                ; preds = %1
  %9 = load i32, ptr @git_gettext_enabled, align 4, !tbaa !4
  %10 = icmp ne i32 %9, 0
  br i1 %10, label %13, label %11

11:                                               ; preds = %8
  %12 = load ptr, ptr %3, align 8, !tbaa !65
  store ptr %12, ptr %2, align 8
  br label %16

13:                                               ; preds = %8
  %14 = load ptr, ptr %3, align 8, !tbaa !65
  %15 = call ptr @dcgettext(ptr noundef null, ptr noundef %14, i32 noundef 5) #12
  store ptr %15, ptr %2, align 8
  br label %16

16:                                               ; preds = %13, %11, %7
  %17 = load ptr, ptr %2, align 8
  ret ptr %17
}

; Function Attrs: nounwind uwtable
define internal i32 @graph_read_oid_lookup(ptr noundef %0, i64 noundef %1, ptr noundef %2) #0 {
  %4 = alloca i32, align 4
  %5 = alloca ptr, align 8
  %6 = alloca i64, align 8
  %7 = alloca ptr, align 8
  %8 = alloca ptr, align 8
  %9 = alloca i32, align 4
  store ptr %0, ptr %5, align 8, !tbaa !65
  store i64 %1, ptr %6, align 8, !tbaa !73
  store ptr %2, ptr %7, align 8, !tbaa !78
  call void @llvm.lifetime.start.p0(i64 8, ptr %8) #12
  %10 = load ptr, ptr %7, align 8, !tbaa !78
  store ptr %10, ptr %8, align 8, !tbaa !79
  %11 = load ptr, ptr %5, align 8, !tbaa !65
  %12 = load ptr, ptr %8, align 8, !tbaa !79
  %13 = getelementptr inbounds nuw %struct.commit_graph, ptr %12, i32 0, i32 12
  store ptr %11, ptr %13, align 8, !tbaa !105
  %14 = load i64, ptr %6, align 8, !tbaa !73
  %15 = load ptr, ptr %8, align 8, !tbaa !79
  %16 = getelementptr inbounds nuw %struct.commit_graph, ptr %15, i32 0, i32 2
  %17 = load i8, ptr %16, align 8, !tbaa !90
  %18 = zext i8 %17 to i64
  %19 = udiv i64 %14, %18
  %20 = load ptr, ptr %8, align 8, !tbaa !79
  %21 = getelementptr inbounds nuw %struct.commit_graph, ptr %20, i32 0, i32 4
  %22 = load i32, ptr %21, align 4, !tbaa !102
  %23 = zext i32 %22 to i64
  %24 = icmp ne i64 %19, %23
  br i1 %24, label %25, label %29

25:                                               ; preds = %3
  %26 = call ptr @_(ptr noundef @.str.34)
  %27 = call i32 (ptr, ...) @error(ptr noundef %26)
  %28 = call i32 @const_error()
  store i32 %28, ptr %4, align 4
  store i32 1, ptr %9, align 4
  br label %30

29:                                               ; preds = %3
  store i32 0, ptr %4, align 4
  store i32 1, ptr %9, align 4
  br label %30

30:                                               ; preds = %29, %25
  call void @llvm.lifetime.end.p0(i64 8, ptr %8) #12
  %31 = load i32, ptr %4, align 4
  ret i32 %31
}