; Function Attrs: nounwind uwtable
define internal range(i32 -1, 1) i32 @graph_read_oid_lookup(ptr noundef %0, i64 noundef %1, ptr noundef captures(none) initializes((104, 112)) %2) #0 {
  %4 = getelementptr inbounds nuw i8, ptr %2, i64 104
  store ptr %0, ptr %4, align 8, !tbaa !99
  %5 = getelementptr inbounds nuw i8, ptr %2, i64 16
  %6 = load i8, ptr %5, align 8, !tbaa !81
  %7 = zext i8 %6 to i64
  %8 = udiv i64 %1, %7
  %9 = getelementptr inbounds nuw i8, ptr %2, i64 20
  %10 = load i32, ptr %9, align 4, !tbaa !97
  %11 = zext i32 %10 to i64
  %.not = icmp eq i64 %8, %11
  br i1 %.not, label %17, label %12

12:                                               ; preds = %3
  %13 = load i32, ptr @git_gettext_enabled, align 4, !tbaa !47
  %.not4.i = icmp eq i32 %13, 0
  br i1 %.not4.i, label %_.exit, label %14

14:                                               ; preds = %12
  %15 = tail call ptr @dcgettext(ptr noundef null, ptr noundef nonnull @.str.34, i32 noundef 5) #24
  br label %_.exit

_.exit:                                           ; preds = %12, %14
  %.0.i = phi ptr [ %15, %14 ], [ @.str.34, %12 ]
  %16 = tail call i32 (ptr, ...) @error(ptr noundef %.0.i) #24
  br label %17

17:                                               ; preds = %3, %_.exit
  %.0 = phi i32 [ -1, %_.exit ], [ 0, %3 ]
  ret i32 %.0
}